target datalayout = "e-m:e-p270:32:32-p271:32:32-p272:64:64-i64:64-i128:128-f80:128-n8:16:32:64-S128"
target triple = "x86_64-pc-linux-gnu"

%struct.ImVec2 = type { float, float }
%struct.ImVec4 = type { float, float, float, float }
%struct.ImVector = type { i32, i32, ptr }
%struct.ImDrawList = type { %struct.ImVector.0, %struct.ImVector.1, %struct.ImVector.2, i32, i32, ptr, ptr, ptr, %struct.ImVector, %struct.ImDrawCmdHeader, %struct.ImDrawListSplitter, %struct.ImVector.4, %struct.ImVector.5, %struct.ImVector.6, float, ptr }
%struct.ImVector.0 = type { i32, i32, ptr }
%struct.ImVector.1 = type { i32, i32, ptr }
%struct.ImVector.2 = type { i32, i32, ptr }
%struct.ImDrawCmdHeader = type <{ %struct.ImVec4, i64, i32, [4 x i8] }>
%struct.ImDrawListSplitter = type { i32, i32, %struct.ImVector.3 }
%struct.ImVector.3 = type { i32, i32, ptr }
%struct.ImVector.4 = type { i32, i32, ptr }
%struct.ImVector.5 = type { i32, i32, ptr }
%struct.ImVector.6 = type { i32, i32, ptr }

; Function Attrs: inlinehint mustprogress uwtable
define linkonce_odr void @_ZN8ImVectorI6ImVec2E7reserveEi(ptr noundef nonnull align 8 dereferenceable(16) %0, i32 noundef %1) #5 comdat align 2 {
  %3 = alloca ptr, align 8
  %4 = alloca i32, align 4
  %5 = alloca ptr, align 8
  store ptr %0, ptr %3, align 8, !tbaa !36
  store i32 %1, ptr %4, align 4, !tbaa !27
  %6 = load ptr, ptr %3, align 8
  %7 = load i32, ptr %4, align 4, !tbaa !27
  %8 = getelementptr inbounds nuw %struct.ImVector, ptr %6, i32 0, i32 1
  %9 = load i32, ptr %8, align 4, !tbaa !38
  %10 = icmp sle i32 %7, %9
  br i1 %10, label %11, label %12

11:                                               ; preds = %2
  br label %35

12:                                               ; preds = %2
  call void @llvm.lifetime.start.p0(i64 8, ptr %5) #17
  %13 = load i32, ptr %4, align 4, !tbaa !27
  %14 = sext i32 %13 to i64
  %15 = mul i64 %14, 8
  %16 = call noundef ptr @_ZN5ImGui8MemAllocEm(i64 noundef %15)
  store ptr %16, ptr %5, align 8, !tbaa !33
  %17 = getelementptr inbounds nuw %struct.ImVector, ptr %6, i32 0, i32 2
  %18 = load ptr, ptr %17, align 8, !tbaa !40
  %19 = icmp ne ptr %18, null
  br i1 %19, label %20, label %30

20:                                               ; preds = %12
  %21 = load ptr, ptr %5, align 8, !tbaa !33
  %22 = getelementptr inbounds nuw %struct.ImVector, ptr %6, i32 0, i32 2
  %23 = load ptr, ptr %22, align 8, !tbaa !40
  %24 = getelementptr inbounds nuw %struct.ImVector, ptr %6, i32 0, i32 0
  %25 = load i32, ptr %24, align 8, !tbaa !39
  %26 = sext i32 %25 to i64
  %27 = mul i64 %26, 8
  call void @llvm.memcpy.p0.p0.i64(ptr align 4 %21, ptr align 4 %23, i64 %27, i1 false)
  %28 = getelementptr inbounds nuw %struct.ImVector, ptr %6, i32 0, i32 2
  %29 = load ptr, ptr %28, align 8, !tbaa !40
  call void @_ZN5ImGui7MemFreeEPv(ptr noundef %29)
  br label %30

30:                                               ; preds = %20, %12
  %31 = load ptr, ptr %5, align 8, !tbaa !33
  %32 = getelementptr inbounds nuw %struct.ImVector, ptr %6, i32 0, i32 2
  store ptr %31, ptr %32, align 8, !tbaa !40
  %33 = load i32, ptr %4, align 4, !tbaa !27
  %34 = getelementptr inbounds nuw %struct.ImVector, ptr %6, i32 0, i32 1
  store i32 %33, ptr %34, align 4, !tbaa !38
  call void @llvm.lifetime.end.p0(i64 8, ptr %5) #17
  br label %35

35:                                               ; preds = %30, %11
  ret void
}

; Function Attrs: inlinehint mustprogress nounwind uwtable
define linkonce_odr noundef i32 @_ZNK8ImVectorI6ImVec2E14_grow_capacityEi(ptr noundef nonnull align 8 dereferenceable(16) %0, i32 noundef %1) #7 comdat align 2 {
  %3 = alloca ptr, align 8
  %4 = alloca i32, align 4
  %5 = alloca i32, align 4
  store ptr %0, ptr %3, align 8, !tbaa !36
  store i32 %1, ptr %4, align 4, !tbaa !27
  %6 = load ptr, ptr %3, align 8
  call void @llvm.lifetime.start.p0(i64 4, ptr %5) #17
  %7 = getelementptr inbounds nuw %struct.ImVector, ptr %6, i32 0, i32 1
  %8 = load i32, ptr %7, align 4, !tbaa !38
  %9 = icmp ne i32 %8, 0
  br i1 %9, label %10, label %17

10:                                               ; preds = %2
  %11 = getelementptr inbounds nuw %struct.ImVector, ptr %6, i32 0, i32 1
  %12 = load i32, ptr %11, align 4, !tbaa !38
  %13 = getelementptr inbounds nuw %struct.ImVector, ptr %6, i32 0, i32 1
  %14 = load i32, ptr %13, align 4, !tbaa !38
  %15 = sdiv i32 %14, 2
  %16 = add nsw i32 %12, %15
  br label %18

17:                                               ; preds = %2
  br label %18

18:                                               ; preds = %17, %10
  %19 = phi i32 [ %16, %10 ], [ 8, %17 ]
  store i32 %19, ptr %5, align 4, !tbaa !27
  %20 = load i32, ptr %5, align 4, !tbaa !27
  %21 = load i32, ptr %4, align 4, !tbaa !27
  %22 = icmp sgt i32 %20, %21
  br i1 %22, label %23, label %25

23:                                               ; preds = %18
  %24 = load i32, ptr %5, align 4, !tbaa !27
  br label %27

25:                                               ; preds = %18
  %26 = load i32, ptr %4, align 4, !tbaa !27
  br label %27

27:                                               ; preds = %25, %23
  %28 = phi i32 [ %24, %23 ], [ %26, %25 ]
  call void @llvm.lifetime.end.p0(i64 4, ptr %5) #17
  ret i32 %28
}

; Function Attrs: inlinehint mustprogress uwtable
define linkonce_odr void @_ZN8ImVectorI6ImVec2E9push_backERKS0_(ptr noundef nonnull align 8 dereferenceable(16) %0, ptr noundef nonnull align 4 dereferenceable(8) %1) #5 comdat align 2 {
  %3 = alloca ptr, align 8
  %4 = alloca ptr, align 8
  store ptr %0, ptr %3, align 8, !tbaa !36
  store ptr %1, ptr %4, align 8, !tbaa !33
  %5 = load ptr, ptr %3, align 8
  %6 = getelementptr inbounds nuw %struct.ImVector, ptr %5, i32 0, i32 0
  %7 = load i32, ptr %6, align 8, !tbaa !39
  %8 = getelementptr inbounds nuw %struct.ImVector, ptr %5, i32 0, i32 1
  %9 = load i32, ptr %8, align 4, !tbaa !38
  %10 = icmp eq i32 %7, %9
  br i1 %10, label %11, label %16

11:                                               ; preds = %2
  %12 = getelementptr inbounds nuw %struct.ImVector, ptr %5, i32 0, i32 0
  %13 = load i32, ptr %12, align 8, !tbaa !39
  %14 = add nsw i32 %13, 1
  %15 = call noundef i32 @_ZNK8ImVectorI6ImVec2E14_grow_capacityEi(ptr noundef nonnull align 8 dereferenceable(16) %5, i32 noundef %14)
  call void @_ZN8ImVectorI6ImVec2E7reserveEi(ptr noundef nonnull align 8 dereferenceable(16) %5, i32 noundef %15)
  br label %16

16:                                               ; preds = %11, %2
  %17 = getelementptr inbounds nuw %struct.ImVector, ptr %5, i32 0, i32 2
  %18 = load ptr, ptr %17, align 8, !tbaa !40
  %19 = getelementptr inbounds nuw %struct.ImVector, ptr %5, i32 0, i32 0
  %20 = load i32, ptr %19, align 8, !tbaa !39
  %21 = sext i32 %20 to i64
  %22 = getelementptr inbounds %struct.ImVec2, ptr %18, i64 %21
  %23 = load ptr, ptr %4, align 8, !tbaa !33
  call void @llvm.memcpy.p0.p0.i64(ptr align 4 %22, ptr align 4 %23, i64 8, i1 false)
  %24 = getelementptr inbounds nuw %struct.ImVector, ptr %5, i32 0, i32 0
  %25 = load i32, ptr %24, align 8, !tbaa !39
  %26 = add nsw i32 %25, 1
  store i32 %26, ptr %24, align 8, !tbaa !39
  ret void
}

; Function Attrs: inlinehint mustprogress uwtable
define linkonce_odr void @_ZN10ImDrawList10PathStrokeEjif(ptr noundef nonnull align 8 dereferenceable(216) %0, i32 noundef %1, i32 noundef %2, float noundef %3) #5 comdat align 2 {
  %5 = alloca ptr, align 8
  %6 = alloca i32, align 4
  %7 = alloca i32, align 4
  %8 = alloca float, align 4
  store ptr %0, ptr %5, align 8, !tbaa !43
  store i32 %1, ptr %6, align 4, !tbaa !27
  store i32 %2, ptr %7, align 4, !tbaa !27
  store float %3, ptr %8, align 4, !tbaa !11
  %9 = load ptr, ptr %5, align 8
  %10 = getelementptr inbounds nuw %struct.ImDrawList, ptr %9, i32 0, i32 8
  %11 = getelementptr inbounds nuw %struct.ImVector, ptr %10, i32 0, i32 2
  %12 = load ptr, ptr %11, align 8, !tbaa !177
  %13 = getelementptr inbounds nuw %struct.ImDrawList, ptr %9, i32 0, i32 8
  %14 = getelementptr inbounds nuw %struct.ImVector, ptr %13, i32 0, i32 0
  %15 = load i32, ptr %14, align 8, !tbaa !176
  %16 = load i32, ptr %6, align 4, !tbaa !27
  %17 = load i32, ptr %7, align 4, !tbaa !27
  %18 = load float, ptr %8, align 4, !tbaa !11
  call void @_ZN10ImDrawList11AddPolylineEPK6ImVec2ijif(ptr noundef nonnull align 8 dereferenceable(216) %9, ptr noundef %12, i32 noundef %15, i32 noundef %16, i32 noundef %17, float noundef %18)
  %19 = getelementptr inbounds nuw %struct.ImDrawList, ptr %9, i32 0, i32 8
  %20 = getelementptr inbounds nuw %struct.ImVector, ptr %19, i32 0, i32 0
  store i32 0, ptr %20, align 8, !tbaa !176
  ret void
}

; Function Attrs: inlinehint mustprogress uwtable
define linkonce_odr void @_ZN10ImDrawList10PathLineToERK6ImVec2(ptr noundef nonnull align 8 dereferenceable(216) %0, ptr noundef nonnull align 4 dereferenceable(8) %1) #5 comdat align 2 {
  %3 = alloca ptr, align 8
  %4 = alloca ptr, align 8
  store ptr %0, ptr %3, align 8, !tbaa !43
  store ptr %1, ptr %4, align 8, !tbaa !33
  %5 = load ptr, ptr %3, align 8
  %6 = getelementptr inbounds nuw %struct.ImDrawList, ptr %5, i32 0, i32 8
  %7 = load ptr, ptr %4, align 8, !tbaa !33
  call void @_ZN8ImVectorI6ImVec2E9push_backERKS0_(ptr noundef nonnull align 8 dereferenceable(16) %6, ptr noundef nonnull align 4 dereferenceable(8) %7)
  ret void
}

; Function Attrs: inlinehint mustprogress nounwind uwtable
define internal noundef nonnull align 4 dereferenceable(8) ptr @_ZpLR6ImVec2RKS_(ptr noundef nonnull align 4 dereferenceable(8) %0, ptr noundef nonnull align 4 dereferenceable(8) %1) #7 {
  %3 = alloca ptr, align 8
  %4 = alloca ptr, align 8
  store ptr %0, ptr %3, align 8, !tbaa !33
  store ptr %1, ptr %4, align 8, !tbaa !33
  %5 = load ptr, ptr %4, align 8, !tbaa !33
  %6 = getelementptr inbounds nuw %struct.ImVec2, ptr %5, i32 0, i32 0
  %7 = load float, ptr %6, align 4, !tbaa !34
  %8 = load ptr, ptr %3, align 8, !tbaa !33
  %9 = getelementptr inbounds nuw %struct.ImVec2, ptr %8, i32 0, i32 0
  %10 = load float, ptr %9, align 4, !tbaa !34
  %11 = fadd float %10, %7
  store float %11, ptr %9, align 4, !tbaa !34
  %12 = load ptr, ptr %4, align 8, !tbaa !33
  %13 = getelementptr inbounds nuw %struct.ImVec2, ptr %12, i32 0, i32 1
  %14 = load float, ptr %13, align 4, !tbaa !35
  %15 = load ptr, ptr %3, align 8, !tbaa !33
  %16 = getelementptr inbounds nuw %struct.ImVec2, ptr %15, i32 0, i32 1
  %17 = load float, ptr %16, align 4, !tbaa !35
  %18 = fadd float %17, %14
  store float %18, ptr %16, align 4, !tbaa !35
  %19 = load ptr, ptr %3, align 8, !tbaa !33
  ret ptr %19
}

; Function Attrs: mustprogress nounwind uwtable
define linkonce_odr void @_ZN6ImVec2C2Eff(ptr noundef nonnull align 4 dereferenceable(8) %0, float noundef %1, float noundef %2) unnamed_addr #3 comdat align 2 {
  %4 = alloca ptr, align 8
  %5 = alloca float, align 4
  %6 = alloca float, align 4
  store ptr %0, ptr %4, align 8, !tbaa !33
  store float %1, ptr %5, align 4, !tbaa !11
  store float %2, ptr %6, align 4, !tbaa !11
  %7 = load ptr, ptr %4, align 8
  %8 = getelementptr inbounds nuw %struct.ImVec2, ptr %7, i32 0, i32 0
  %9 = load float, ptr %5, align 4, !tbaa !11
  store float %9, ptr %8, align 4, !tbaa !34
  %10 = getelementptr inbounds nuw %struct.ImVec2, ptr %7, i32 0, i32 1
  %11 = load float, ptr %6, align 4, !tbaa !11
  store float %11, ptr %10, align 4, !tbaa !35
  ret void
}

; Function Attrs: inlinehint mustprogress nounwind uwtable
define internal noundef float @_ZL5ImMaxIfET_S0_S0_(float noundef %0, float noundef %1) #7 {
  %3 = alloca float, align 4
  %4 = alloca float, align 4
  store float %0, ptr %3, align 4, !tbaa !11
  store float %1, ptr %4, align 4, !tbaa !11
  %5 = load float, ptr %3, align 4, !tbaa !11
  %6 = load float, ptr %4, align 4, !tbaa !11
  %7 = fcmp oge float %5, %6
  br i1 %7, label %8, label %10

8:                                                ; preds = %2
  %9 = load float, ptr %3, align 4, !tbaa !11
  br label %12

10:                                               ; preds = %2
  %11 = load float, ptr %4, align 4, !tbaa !11
  br label %12

12:                                               ; preds = %10, %8
  %13 = phi float [ %9, %8 ], [ %11, %10 ]
  ret float %13
}

; Function Attrs: mustprogress uwtable
define void @_ZN5ImGui15RenderCheckMarkEP10ImDrawList6ImVec2jf(ptr noundef %0, <2 x float> %1, i32 noundef %2, float noundef %3) #0 {
  %5 = alloca %struct.ImVec2, align 4
  %6 = alloca ptr, align 8
  %7 = alloca i32, align 4
  %8 = alloca float, align 4
  %9 = alloca float, align 4
  %10 = alloca %struct.ImVec2, align 4
  %11 = alloca float, align 4
  %12 = alloca float, align 4
  %13 = alloca float, align 4
  %14 = alloca %struct.ImVec2, align 4
  %15 = alloca %struct.ImVec2, align 4
  %16 = alloca %struct.ImVec2, align 4
  store <2 x float> %1, ptr %5, align 4
  store ptr %0, ptr %6, align 8, !tbaa !43
  store i32 %2, ptr %7, align 4, !tbaa !27
  store float %3, ptr %8, align 4, !tbaa !11
  call void @llvm.lifetime.start.p0(i64 4, ptr %9) #17
  %17 = load float, ptr %8, align 4, !tbaa !11
  %18 = fdiv float %17, 5.000000e+00
  %19 = call noundef float @_ZL5ImMaxIfET_S0_S0_(float noundef %18, float noundef 1.000000e+00)
  store float %19, ptr %9, align 4, !tbaa !11
  %20 = load float, ptr %9, align 4, !tbaa !11
  %21 = load float, ptr %8, align 4, !tbaa !11
  %22 = fneg float %20
  %23 = call float @llvm.fmuladd.f32(float %22, float 5.000000e-01, float %21)
  store float %23, ptr %8, align 4, !tbaa !11
  call void @llvm.lifetime.start.p0(i64 8, ptr %10) #17
  %24 = load float, ptr %9, align 4, !tbaa !11
  %25 = fmul float %24, 2.500000e-01
  %26 = load float, ptr %9, align 4, !tbaa !11
  %27 = fmul float %26, 2.500000e-01
  call void @_ZN6ImVec2C2Eff(ptr noundef nonnull align 4 dereferenceable(8) %10, float noundef %25, float noundef %27)
  %28 = call noundef nonnull align 4 dereferenceable(8) ptr @_ZpLR6ImVec2RKS_(ptr noundef nonnull align 4 dereferenceable(8) %5, ptr noundef nonnull align 4 dereferenceable(8) %10)
  call void @llvm.lifetime.end.p0(i64 8, ptr %10) #17
  call void @llvm.lifetime.start.p0(i64 4, ptr %11) #17
  %29 = load float, ptr %8, align 4, !tbaa !11
  %30 = fdiv float %29, 3.000000e+00
  store float %30, ptr %11, align 4, !tbaa !11
  call void @llvm.lifetime.start.p0(i64 4, ptr %12) #17
  %31 = getelementptr inbounds nuw %struct.ImVec2, ptr %5, i32 0, i32 0
  %32 = load float, ptr %31, align 4, !tbaa !34
  %33 = load float, ptr %11, align 4, !tbaa !11
  %34 = fadd float %32, %33
  store float %34, ptr %12, align 4, !tbaa !11
  call void @llvm.lifetime.start.p0(i64 4, ptr %13) #17
  %35 = getelementptr inbounds nuw %struct.ImVec2, ptr %5, i32 0, i32 1
  %36 = load float, ptr %35, align 4, !tbaa !35
  %37 = load float, ptr %8, align 4, !tbaa !11
  %38 = fadd float %36, %37
  %39 = load float, ptr %11, align 4, !tbaa !11
  %40 = fneg float %39
  %41 = call float @llvm.fmuladd.f32(float %40, float 5.000000e-01, float %38)
  store float %41, ptr %13, align 4, !tbaa !11
  %42 = load ptr, ptr %6, align 8, !tbaa !43
  call void @llvm.lifetime.start.p0(i64 8, ptr %14) #17
  %43 = load float, ptr %12, align 4, !tbaa !11
  %44 = load float, ptr %11, align 4, !tbaa !11
  %45 = fsub float %43, %44
  %46 = load float, ptr %13, align 4, !tbaa !11
  %47 = load float, ptr %11, align 4, !tbaa !11
  %48 = fsub float %46, %47
  call void @_ZN6ImVec2C2Eff(ptr noundef nonnull align 4 dereferenceable(8) %14, float noundef %45, float noundef %48)
  call void @_ZN10ImDrawList10PathLineToERK6ImVec2(ptr noundef nonnull align 8 dereferenceable(216) %42, ptr noundef nonnull align 4 dereferenceable(8) %14)
  call void @llvm.lifetime.end.p0(i64 8, ptr %14) #17
  %49 = load ptr, ptr %6, align 8, !tbaa !43
  call void @llvm.lifetime.start.p0(i64 8, ptr %15) #17
  %50 = load float, ptr %12, align 4, !tbaa !11
  %51 = load float, ptr %13, align 4, !tbaa !11
  call void @_ZN6ImVec2C2Eff(ptr noundef nonnull align 4 dereferenceable(8) %15, float noundef %50, float noundef %51)
  call void @_ZN10ImDrawList10PathLineToERK6ImVec2(ptr noundef nonnull align 8 dereferenceable(216) %49, ptr noundef nonnull align 4 dereferenceable(8) %15)
  call void @llvm.lifetime.end.p0(i64 8, ptr %15) #17
  %52 = load ptr, ptr %6, align 8, !tbaa !43
  call void @llvm.lifetime.start.p0(i64 8, ptr %16) #17
  %53 = load float, ptr %12, align 4, !tbaa !11
  %54 = load float, ptr %11, align 4, !tbaa !11
  %55 = call float @llvm.fmuladd.f32(float %54, float 2.000000e+00, float %53)
  %56 = load float, ptr %13, align 4, !tbaa !11
  %57 = load float, ptr %11, align 4, !tbaa !11
  %58 = fneg float %57
  %59 = call float @llvm.fmuladd.f32(float %58, float 2.000000e+00, float %56)
  call void @_ZN6ImVec2C2Eff(ptr noundef nonnull align 4 dereferenceable(8) %16, float noundef %55, float noundef %59)
  call void @_ZN10ImDrawList10PathLineToERK6ImVec2(ptr noundef nonnull align 8 dereferenceable(216) %52, ptr noundef nonnull align 4 dereferenceable(8) %16)
  call void @llvm.lifetime.end.p0(i64 8, ptr %16) #17
  %60 = load ptr, ptr %6, align 8, !tbaa !43
  %61 = load i32, ptr %7, align 4, !tbaa !27
  %62 = load float, ptr %9, align 4, !tbaa !11
  call void @_ZN10ImDrawList10PathStrokeEjif(ptr noundef nonnull align 8 dereferenceable(216) %60, i32 noundef %61, i32 noundef 0, float noundef %62)
  call void @llvm.lifetime.end.p0(i64 4, ptr %13) #17
  call void @llvm.lifetime.end.p0(i64 4, ptr %12) #17
  call void @llvm.lifetime.end.p0(i64 4, ptr %11) #17
  call void @llvm.lifetime.end.p0(i64 4, ptr %9) #17
  ret void
}