; Function Attrs: mustprogress uwtable
define void @_ZN5ImGui15RenderCheckMarkEP10ImDrawList6ImVec2jf(ptr noundef captures(none) %0, <2 x float> %1, i32 noundef %2, float noundef %3) local_unnamed_addr #0 {
  %5 = fdiv float %3, 5.000000e+00
  %6 = fcmp oge float %5, 1.000000e+00
  %7 = select i1 %6, float %5, float 1.000000e+00
  %8 = fneg float %7
  %9 = tail call float @llvm.fmuladd.f32(float %8, float 5.000000e-01, float %3)
  %10 = fmul float %7, 2.500000e-01
  %.sroa.050.0.vec.extract52 = extractelement <2 x float> %1, i64 0
  %11 = fadd float %.sroa.050.0.vec.extract52, %10
  %.sroa.050.4.vec.extract55 = extractelement <2 x float> %1, i64 1
  %12 = fadd float %.sroa.050.4.vec.extract55, %10
  %13 = fdiv float %9, 3.000000e+00
  %14 = fadd float %11, %13
  %15 = fadd float %9, %12
  %16 = fneg float %13
  %17 = tail call float @llvm.fmuladd.f32(float %16, float 5.000000e-01, float %15)
  %18 = fsub float %14, %13
  %19 = fsub float %17, %13
  %20 = getelementptr inbounds nuw i8, ptr %0, i64 80
  %21 = load i32, ptr %20, align 8, !tbaa !67
  %22 = getelementptr inbounds nuw i8, ptr %0, i64 84
  %23 = load i32, ptr %22, align 4, !tbaa !66
  %24 = icmp eq i32 %21, %23
  br i1 %24, label %25, label %._ZN8ImVectorI6ImVec2E7reserveEi.exit_crit_edge.i.i

._ZN8ImVectorI6ImVec2E7reserveEi.exit_crit_edge.i.i: ; preds = %4
  %.phi.trans.insert.i.i = getelementptr inbounds nuw i8, ptr %0, i64 88
  %.pre.i.i = load ptr, ptr %.phi.trans.insert.i.i, align 8, !tbaa !49
  br label %_ZN10ImDrawList10PathLineToERK6ImVec2.exit

25:                                               ; preds = %4
  %26 = add nsw i32 %21, 1
  %.not.i.i.i = icmp eq i32 %21, 0
  br i1 %.not.i.i.i, label %_ZNK8ImVectorI6ImVec2E14_grow_capacityEi.exit.i.i, label %27

27:                                               ; preds = %25
  %28 = sdiv i32 %21, 2
  %29 = add nsw i32 %28, %21
  br label %_ZNK8ImVectorI6ImVec2E14_grow_capacityEi.exit.i.i

_ZNK8ImVectorI6ImVec2E14_grow_capacityEi.exit.i.i: ; preds = %27, %25
  %30 = phi i32 [ %29, %27 ], [ 8, %25 ]
  %31 = tail call noundef i32 @llvm.smax.i32(i32 %30, i32 %26)
  %32 = sext i32 %31 to i64
  %33 = shl nsw i64 %32, 3
  %34 = tail call noundef ptr @_ZN5ImGui8MemAllocEm(i64 noundef %33)
  %35 = getelementptr inbounds nuw i8, ptr %0, i64 88
  %36 = load ptr, ptr %35, align 8, !tbaa !49
  %.not6.i.i.i = icmp eq ptr %36, null
  br i1 %.not6.i.i.i, label %42, label %37

37:                                               ; preds = %_ZNK8ImVectorI6ImVec2E14_grow_capacityEi.exit.i.i
  %38 = load i32, ptr %20, align 8, !tbaa !67
  %39 = sext i32 %38 to i64
  %40 = shl nsw i64 %39, 3
  tail call void @llvm.memcpy.p0.p0.i64(ptr align 4 %34, ptr nonnull align 4 %36, i64 %40, i1 false)
  %41 = load ptr, ptr %35, align 8, !tbaa !49
  tail call void @_ZN5ImGui7MemFreeEPv(ptr noundef %41)
  br label %42

42:                                               ; preds = %37, %_ZNK8ImVectorI6ImVec2E14_grow_capacityEi.exit.i.i
  store ptr %34, ptr %35, align 8, !tbaa !49
  store i32 %31, ptr %22, align 4, !tbaa !66
  %.pre3.i.i = load i32, ptr %20, align 8, !tbaa !67
  br label %_ZN10ImDrawList10PathLineToERK6ImVec2.exit

_ZN10ImDrawList10PathLineToERK6ImVec2.exit:       ; preds = %._ZN8ImVectorI6ImVec2E7reserveEi.exit_crit_edge.i.i, %42
  %43 = phi i32 [ %21, %._ZN8ImVectorI6ImVec2E7reserveEi.exit_crit_edge.i.i ], [ %.pre3.i.i, %42 ]
  %44 = phi ptr [ %.pre.i.i, %._ZN8ImVectorI6ImVec2E7reserveEi.exit_crit_edge.i.i ], [ %34, %42 ]
  %45 = sext i32 %43 to i64
  %46 = getelementptr inbounds %struct.ImVec2, ptr %44, i64 %45
  store float %18, ptr %46, align 4
  %.sroa_idx45 = getelementptr inbounds nuw i8, ptr %46, i64 4
  store float %19, ptr %.sroa_idx45, align 4
  %47 = load i32, ptr %20, align 8, !tbaa !67
  %48 = add nsw i32 %47, 1
  store i32 %48, ptr %20, align 8, !tbaa !67
  %49 = load i32, ptr %22, align 4, !tbaa !66
  %50 = icmp eq i32 %48, %49
  br i1 %50, label %51, label %._ZN8ImVectorI6ImVec2E7reserveEi.exit_crit_edge.i.i25

._ZN8ImVectorI6ImVec2E7reserveEi.exit_crit_edge.i.i25: ; preds = %_ZN10ImDrawList10PathLineToERK6ImVec2.exit
  %.phi.trans.insert.i.i26 = getelementptr inbounds nuw i8, ptr %0, i64 88
  %.pre.i.i27 = load ptr, ptr %.phi.trans.insert.i.i26, align 8, !tbaa !49
  br label %_ZN10ImDrawList10PathLineToERK6ImVec2.exit32

51:                                               ; preds = %_ZN10ImDrawList10PathLineToERK6ImVec2.exit
  %52 = add nsw i32 %47, 2
  %.not.i.i.i28 = icmp eq i32 %48, 0
  br i1 %.not.i.i.i28, label %_ZNK8ImVectorI6ImVec2E14_grow_capacityEi.exit.i.i29, label %53

53:                                               ; preds = %51
  %54 = sdiv i32 %48, 2
  %55 = add nsw i32 %54, %48
  br label %_ZNK8ImVectorI6ImVec2E14_grow_capacityEi.exit.i.i29

_ZNK8ImVectorI6ImVec2E14_grow_capacityEi.exit.i.i29: ; preds = %53, %51
  %56 = phi i32 [ %55, %53 ], [ 8, %51 ]
  %57 = tail call noundef i32 @llvm.smax.i32(i32 %56, i32 %52)
  %58 = sext i32 %57 to i64
  %59 = shl nsw i64 %58, 3
  %60 = tail call noundef ptr @_ZN5ImGui8MemAllocEm(i64 noundef %59)
  %61 = getelementptr inbounds nuw i8, ptr %0, i64 88
  %62 = load ptr, ptr %61, align 8, !tbaa !49
  %.not6.i.i.i30 = icmp eq ptr %62, null
  br i1 %.not6.i.i.i30, label %68, label %63

63:                                               ; preds = %_ZNK8ImVectorI6ImVec2E14_grow_capacityEi.exit.i.i29
  %64 = load i32, ptr %20, align 8, !tbaa !67
  %65 = sext i32 %64 to i64
  %66 = shl nsw i64 %65, 3
  tail call void @llvm.memcpy.p0.p0.i64(ptr align 4 %60, ptr nonnull align 4 %62, i64 %66, i1 false)
  %67 = load ptr, ptr %61, align 8, !tbaa !49
  tail call void @_ZN5ImGui7MemFreeEPv(ptr noundef %67)
  br label %68

68:                                               ; preds = %63, %_ZNK8ImVectorI6ImVec2E14_grow_capacityEi.exit.i.i29
  store ptr %60, ptr %61, align 8, !tbaa !49
  store i32 %57, ptr %22, align 4, !tbaa !66
  %.pre3.i.i31 = load i32, ptr %20, align 8, !tbaa !67
  br label %_ZN10ImDrawList10PathLineToERK6ImVec2.exit32

_ZN10ImDrawList10PathLineToERK6ImVec2.exit32:     ; preds = %._ZN8ImVectorI6ImVec2E7reserveEi.exit_crit_edge.i.i25, %68
  %69 = phi i32 [ %48, %._ZN8ImVectorI6ImVec2E7reserveEi.exit_crit_edge.i.i25 ], [ %.pre3.i.i31, %68 ]
  %70 = phi ptr [ %.pre.i.i27, %._ZN8ImVectorI6ImVec2E7reserveEi.exit_crit_edge.i.i25 ], [ %60, %68 ]
  %71 = sext i32 %69 to i64
  %72 = getelementptr inbounds %struct.ImVec2, ptr %70, i64 %71
  store float %14, ptr %72, align 4
  %.sroa_idx42 = getelementptr inbounds nuw i8, ptr %72, i64 4
  store float %17, ptr %.sroa_idx42, align 4
  %73 = load i32, ptr %20, align 8, !tbaa !67
  %74 = add nsw i32 %73, 1
  store i32 %74, ptr %20, align 8, !tbaa !67
  %75 = load i32, ptr %22, align 4, !tbaa !66
  %76 = icmp eq i32 %74, %75
  br i1 %76, label %77, label %._ZN8ImVectorI6ImVec2E7reserveEi.exit_crit_edge.i.i33

._ZN8ImVectorI6ImVec2E7reserveEi.exit_crit_edge.i.i33: ; preds = %_ZN10ImDrawList10PathLineToERK6ImVec2.exit32
  %.phi.trans.insert.i.i34 = getelementptr inbounds nuw i8, ptr %0, i64 88
  %.pre.i.i35 = load ptr, ptr %.phi.trans.insert.i.i34, align 8, !tbaa !49
  br label %_ZN10ImDrawList10PathLineToERK6ImVec2.exit40

77:                                               ; preds = %_ZN10ImDrawList10PathLineToERK6ImVec2.exit32
  %78 = add nsw i32 %73, 2
  %.not.i.i.i36 = icmp eq i32 %74, 0
  br i1 %.not.i.i.i36, label %_ZNK8ImVectorI6ImVec2E14_grow_capacityEi.exit.i.i37, label %79

79:                                               ; preds = %77
  %80 = sdiv i32 %74, 2
  %81 = add nsw i32 %80, %74
  br label %_ZNK8ImVectorI6ImVec2E14_grow_capacityEi.exit.i.i37

_ZNK8ImVectorI6ImVec2E14_grow_capacityEi.exit.i.i37: ; preds = %79, %77
  %82 = phi i32 [ %81, %79 ], [ 8, %77 ]
  %83 = tail call noundef i32 @llvm.smax.i32(i32 %82, i32 %78)
  %84 = sext i32 %83 to i64
  %85 = shl nsw i64 %84, 3
  %86 = tail call noundef ptr @_ZN5ImGui8MemAllocEm(i64 noundef %85)
  %87 = getelementptr inbounds nuw i8, ptr %0, i64 88
  %88 = load ptr, ptr %87, align 8, !tbaa !49
  %.not6.i.i.i38 = icmp eq ptr %88, null
  br i1 %.not6.i.i.i38, label %94, label %89

89:                                               ; preds = %_ZNK8ImVectorI6ImVec2E14_grow_capacityEi.exit.i.i37
  %90 = load i32, ptr %20, align 8, !tbaa !67
  %91 = sext i32 %90 to i64
  %92 = shl nsw i64 %91, 3
  tail call void @llvm.memcpy.p0.p0.i64(ptr align 4 %86, ptr nonnull align 4 %88, i64 %92, i1 false)
  %93 = load ptr, ptr %87, align 8, !tbaa !49
  tail call void @_ZN5ImGui7MemFreeEPv(ptr noundef %93)
  br label %94

94:                                               ; preds = %89, %_ZNK8ImVectorI6ImVec2E14_grow_capacityEi.exit.i.i37
  store ptr %86, ptr %87, align 8, !tbaa !49
  store i32 %83, ptr %22, align 4, !tbaa !66
  %.pre3.i.i39 = load i32, ptr %20, align 8, !tbaa !67
  br label %_ZN10ImDrawList10PathLineToERK6ImVec2.exit40

_ZN10ImDrawList10PathLineToERK6ImVec2.exit40:     ; preds = %._ZN8ImVectorI6ImVec2E7reserveEi.exit_crit_edge.i.i33, %94
  %95 = phi i32 [ %74, %._ZN8ImVectorI6ImVec2E7reserveEi.exit_crit_edge.i.i33 ], [ %.pre3.i.i39, %94 ]
  %96 = phi ptr [ %.pre.i.i35, %._ZN8ImVectorI6ImVec2E7reserveEi.exit_crit_edge.i.i33 ], [ %86, %94 ]
  %97 = tail call float @llvm.fmuladd.f32(float %16, float 2.000000e+00, float %17)
  %98 = tail call float @llvm.fmuladd.f32(float %13, float 2.000000e+00, float %14)
  %99 = sext i32 %95 to i64
  %100 = getelementptr inbounds %struct.ImVec2, ptr %96, i64 %99
  store float %98, ptr %100, align 4
  %.sroa_idx41 = getelementptr inbounds nuw i8, ptr %100, i64 4
  store float %97, ptr %.sroa_idx41, align 4
  %101 = load i32, ptr %20, align 8, !tbaa !67
  %102 = add nsw i32 %101, 1
  store i32 %102, ptr %20, align 8, !tbaa !67
  %103 = getelementptr inbounds nuw i8, ptr %0, i64 88
  %104 = load ptr, ptr %103, align 8, !tbaa !135
  tail call void @_ZN10ImDrawList11AddPolylineEPK6ImVec2ijif(ptr noundef nonnull align 8 dereferenceable(216) %0, ptr noundef %104, i32 noundef %102, i32 noundef %2, i32 noundef 0, float noundef %7)
  store i32 0, ptr %20, align 8, !tbaa !134
  ret void
}